#include <math.h>
#include <stdio.h>
#include <stdlib.h>
#include <string.h>


int apple(int n, int k)
{
    if(n==2)
        return 2*pow(2,2)-(2-1);
    else
        return pow(n,n)-(n-1)*k;
}

int main()
{
    int n,k;

    scanf("%d %d", &n, &k);
    printf("%d\n", apple(n,k));

    return 0;
}

/******************************************************************* 
???????????
apple(n, k)+(n-1)*k = X*pow(n, n)
??X????????????1?n=2????????????X??2?
*******************************************************************/